; Function Attrs: nounwind sspstrong uwtable
define internal void @net_socket_connect(ptr noundef initializes((70072, 70081)) %opaque) #0 {
entry:
  %send_fn = getelementptr inbounds nuw i8, ptr %opaque, i64 70072
  store ptr @net_socket_send, ptr %send_fn, align 8
  %read_poll.i = getelementptr inbounds nuw i8, ptr %opaque, i64 70080
  store i8 1, ptr %read_poll.i, align 8
  %fd.i.i = getelementptr inbounds nuw i8, ptr %opaque, i64 380
  %0 = load i32, ptr %fd.i.i, align 4
  %write_poll.i.i = getelementptr inbounds nuw i8, ptr %opaque, i64 70081
  %1 = load i8, ptr %write_poll.i.i, align 1
  %tobool1.i.i = trunc i8 %1 to i1
  %cond2.i.i = select i1 %tobool1.i.i, ptr @net_socket_writable, ptr null
  tail call void @qemu_set_fd_handler(i32 noundef %0, ptr noundef nonnull @net_socket_send, ptr noundef %cond2.i.i, ptr noundef nonnull %opaque) #8
  ret void
}